target datalayout = "e-m:e-p270:32:32-p271:32:32-p272:64:64-i64:64-i128:128-f80:128-n8:16:32:64-S128"
target triple = "x86_64-pc-linux-gnu"

%struct.SimpleLFO = type { double, double, double, double, double, i32, i32 }

@.str.3 = private unnamed_addr constant [30 x i8] c"Assertion %s failed at %s:%d\0A\00", align 1
@.str.4 = private unnamed_addr constant [2 x i8] c"0\00", align 1
@.str.5 = private unnamed_addr constant [27 x i8] c"libavfilter/af_apulsator.c\00", align 1

; Function Attrs: nounwind uwtable
define internal double @lfo_get_value(ptr noundef %0) #0 {
  %2 = alloca ptr, align 8
  %3 = alloca double, align 8
  %4 = alloca double, align 8
  store ptr %0, ptr %2, align 8, !tbaa !78
  call void @llvm.lifetime.start.p0(i64 8, ptr %3) #5
  %5 = load ptr, ptr %2, align 8, !tbaa !78
  %6 = getelementptr inbounds nuw %struct.SimpleLFO, ptr %5, i32 0, i32 0
  %7 = load double, ptr %6, align 8, !tbaa !80
  %8 = load ptr, ptr %2, align 8, !tbaa !78
  %9 = getelementptr inbounds nuw %struct.SimpleLFO, ptr %8, i32 0, i32 4
  %10 = load double, ptr %9, align 8, !tbaa !81
  %11 = fcmp nsz ogt double 1.000000e-02, %10
  br i1 %11, label %12, label %13

12:                                               ; preds = %1
  br label %17

13:                                               ; preds = %1
  %14 = load ptr, ptr %2, align 8, !tbaa !78
  %15 = getelementptr inbounds nuw %struct.SimpleLFO, ptr %14, i32 0, i32 4
  %16 = load double, ptr %15, align 8, !tbaa !81
  br label %17

17:                                               ; preds = %13, %12
  %18 = phi nsz double [ 1.000000e-02, %12 ], [ %16, %13 ]
  %19 = fcmp nsz ogt double 1.990000e+00, %18
  br i1 %19, label %20, label %32

20:                                               ; preds = %17
  %21 = load ptr, ptr %2, align 8, !tbaa !78
  %22 = getelementptr inbounds nuw %struct.SimpleLFO, ptr %21, i32 0, i32 4
  %23 = load double, ptr %22, align 8, !tbaa !81
  %24 = fcmp nsz ogt double 1.000000e-02, %23
  br i1 %24, label %25, label %26

25:                                               ; preds = %20
  br label %30

26:                                               ; preds = %20
  %27 = load ptr, ptr %2, align 8, !tbaa !78
  %28 = getelementptr inbounds nuw %struct.SimpleLFO, ptr %27, i32 0, i32 4
  %29 = load double, ptr %28, align 8, !tbaa !81
  br label %30

30:                                               ; preds = %26, %25
  %31 = phi nsz double [ 1.000000e-02, %25 ], [ %29, %26 ]
  br label %33

32:                                               ; preds = %17
  br label %33

33:                                               ; preds = %32, %30
  %34 = phi nsz double [ %31, %30 ], [ 1.990000e+00, %32 ]
  %35 = fdiv nsz double %7, %34
  %36 = load ptr, ptr %2, align 8, !tbaa !78
  %37 = getelementptr inbounds nuw %struct.SimpleLFO, ptr %36, i32 0, i32 2
  %38 = load double, ptr %37, align 8, !tbaa !82
  %39 = fadd nsz double %35, %38
  %40 = fcmp nsz ogt double 1.000000e+02, %39
  br i1 %40, label %41, label %77

41:                                               ; preds = %33
  %42 = load ptr, ptr %2, align 8, !tbaa !78
  %43 = getelementptr inbounds nuw %struct.SimpleLFO, ptr %42, i32 0, i32 0
  %44 = load double, ptr %43, align 8, !tbaa !80
  %45 = load ptr, ptr %2, align 8, !tbaa !78
  %46 = getelementptr inbounds nuw %struct.SimpleLFO, ptr %45, i32 0, i32 4
  %47 = load double, ptr %46, align 8, !tbaa !81
  %48 = fcmp nsz ogt double 1.000000e-02, %47
  br i1 %48, label %49, label %50

49:                                               ; preds = %41
  br label %54

50:                                               ; preds = %41
  %51 = load ptr, ptr %2, align 8, !tbaa !78
  %52 = getelementptr inbounds nuw %struct.SimpleLFO, ptr %51, i32 0, i32 4
  %53 = load double, ptr %52, align 8, !tbaa !81
  br label %54

54:                                               ; preds = %50, %49
  %55 = phi nsz double [ 1.000000e-02, %49 ], [ %53, %50 ]
  %56 = fcmp nsz ogt double 1.990000e+00, %55
  br i1 %56, label %57, label %69

57:                                               ; preds = %54
  %58 = load ptr, ptr %2, align 8, !tbaa !78
  %59 = getelementptr inbounds nuw %struct.SimpleLFO, ptr %58, i32 0, i32 4
  %60 = load double, ptr %59, align 8, !tbaa !81
  %61 = fcmp nsz ogt double 1.000000e-02, %60
  br i1 %61, label %62, label %63

62:                                               ; preds = %57
  br label %67

63:                                               ; preds = %57
  %64 = load ptr, ptr %2, align 8, !tbaa !78
  %65 = getelementptr inbounds nuw %struct.SimpleLFO, ptr %64, i32 0, i32 4
  %66 = load double, ptr %65, align 8, !tbaa !81
  br label %67

67:                                               ; preds = %63, %62
  %68 = phi nsz double [ 1.000000e-02, %62 ], [ %66, %63 ]
  br label %70

69:                                               ; preds = %54
  br label %70

70:                                               ; preds = %69, %67
  %71 = phi nsz double [ %68, %67 ], [ 1.990000e+00, %69 ]
  %72 = fdiv nsz double %44, %71
  %73 = load ptr, ptr %2, align 8, !tbaa !78
  %74 = getelementptr inbounds nuw %struct.SimpleLFO, ptr %73, i32 0, i32 2
  %75 = load double, ptr %74, align 8, !tbaa !82
  %76 = fadd nsz double %72, %75
  br label %78

77:                                               ; preds = %33
  br label %78

78:                                               ; preds = %77, %70
  %79 = phi nsz double [ %76, %70 ], [ 1.000000e+02, %77 ]
  store double %79, ptr %3, align 8, !tbaa !52
  call void @llvm.lifetime.start.p0(i64 8, ptr %4) #5
  %80 = load double, ptr %3, align 8, !tbaa !52
  %81 = fcmp nsz ogt double %80, 1.000000e+00
  br i1 %81, label %82, label %85

82:                                               ; preds = %78
  %83 = load double, ptr %3, align 8, !tbaa !52
  %84 = frem nsz double %83, 1.000000e+00
  store double %84, ptr %3, align 8, !tbaa !52
  br label %85

85:                                               ; preds = %82, %78
  %86 = load ptr, ptr %2, align 8, !tbaa !78
  %87 = getelementptr inbounds nuw %struct.SimpleLFO, ptr %86, i32 0, i32 5
  %88 = load i32, ptr %87, align 8, !tbaa !83
  switch i32 %88, label %124 [
    i32 0, label %89
    i32 1, label %94
    i32 2, label %112
    i32 3, label %117
    i32 4, label %120
  ]

89:                                               ; preds = %85
  %90 = load double, ptr %3, align 8, !tbaa !52
  %91 = fmul nsz double %90, 2.000000e+00
  %92 = fmul nsz double %91, 0x400921FB54442D18
  %93 = call nsz double @llvm.sin.f64(double %92)
  store double %93, ptr %4, align 8, !tbaa !52
  br label %128

94:                                               ; preds = %85
  %95 = load double, ptr %3, align 8, !tbaa !52
  %96 = fcmp nsz ogt double %95, 7.500000e-01
  br i1 %96, label %97, label %101

97:                                               ; preds = %94
  %98 = load double, ptr %3, align 8, !tbaa !52
  %99 = fsub nsz double %98, 7.500000e-01
  %100 = call nsz double @llvm.fmuladd.f64(double %99, double 4.000000e+00, double -1.000000e+00)
  store double %100, ptr %4, align 8, !tbaa !52
  br label %111

101:                                              ; preds = %94
  %102 = load double, ptr %3, align 8, !tbaa !52
  %103 = fcmp nsz ogt double %102, 2.500000e-01
  br i1 %103, label %104, label %107

104:                                              ; preds = %101
  %105 = load double, ptr %3, align 8, !tbaa !52
  %106 = call nsz double @llvm.fmuladd.f64(double -4.000000e+00, double %105, double 2.000000e+00)
  store double %106, ptr %4, align 8, !tbaa !52
  br label %110

107:                                              ; preds = %101
  %108 = load double, ptr %3, align 8, !tbaa !52
  %109 = fmul nsz double %108, 4.000000e+00
  store double %109, ptr %4, align 8, !tbaa !52
  br label %110

110:                                              ; preds = %107, %104
  br label %111

111:                                              ; preds = %110, %97
  br label %128

112:                                              ; preds = %85
  %113 = load double, ptr %3, align 8, !tbaa !52
  %114 = fcmp nsz olt double %113, 5.000000e-01
  %115 = select i1 %114, i32 -1, i32 1
  %116 = sitofp i32 %115 to double
  store double %116, ptr %4, align 8, !tbaa !52
  br label %128

117:                                              ; preds = %85
  %118 = load double, ptr %3, align 8, !tbaa !52
  %119 = call nsz double @llvm.fmuladd.f64(double %118, double 2.000000e+00, double -1.000000e+00)
  store double %119, ptr %4, align 8, !tbaa !52
  br label %128

120:                                              ; preds = %85
  %121 = load double, ptr %3, align 8, !tbaa !52
  %122 = fneg nsz double %121
  %123 = call nsz double @llvm.fmuladd.f64(double %122, double 2.000000e+00, double 1.000000e+00)
  store double %123, ptr %4, align 8, !tbaa !52
  br label %128

124:                                              ; preds = %85
  br label %125

125:                                              ; preds = %124
  call void (ptr, i32, ptr, ...) @av_log(ptr noundef null, i32 noundef 0, ptr noundef @.str.3, ptr noundef @.str.4, ptr noundef @.str.5, i32 noundef 123)
  call void @abort() #6
  unreachable

126:                                              ; No predecessors!
  br label %127

127:                                              ; preds = %126
  br label %128

128:                                              ; preds = %127, %120, %117, %112, %111, %89
  %129 = load double, ptr %4, align 8, !tbaa !52
  %130 = load ptr, ptr %2, align 8, !tbaa !78
  %131 = getelementptr inbounds nuw %struct.SimpleLFO, ptr %130, i32 0, i32 3
  %132 = load double, ptr %131, align 8, !tbaa !84
  %133 = fmul nsz double %129, %132
  call void @llvm.lifetime.end.p0(i64 8, ptr %4) #5
  call void @llvm.lifetime.end.p0(i64 8, ptr %3) #5
  ret double %133
}